; Function Attrs: mustprogress uwtable
define noundef signext range(i8 0, 2) i8 @_ZN6icu_7715PersianCalendar10isLeapYearEi(i32 noundef %0) local_unnamed_addr #1 align 2 {
  %.b = load i1, ptr @_ZN12_GLOBAL__N_114gMinCorrectionE, align 4
  %2 = select i1 %.b, i32 1502, i32 0
  %.not = icmp slt i32 %0, %2
  br i1 %.not, label %6, label %3

3:                                                ; preds = %1
  %4 = tail call fastcc noundef ptr @_ZN12_GLOBAL__N_117getLeapCorrectionEv()
  %5 = tail call noundef signext i8 @_ZNK6icu_7710UnicodeSet8containsEi(ptr noundef nonnull align 8 dereferenceable(200) %4, i32 noundef %0)
  %.not9 = icmp eq i8 %5, 0
  br i1 %.not9, label %._crit_edge, label %20

._crit_edge:                                      ; preds = %3
  %.pre.b = load i1, ptr @_ZN12_GLOBAL__N_114gMinCorrectionE, align 4
  %.pre = select i1 %.pre.b, i32 1502, i32 0
  br label %6

6:                                                ; preds = %._crit_edge, %1
  %7 = phi i32 [ %.pre, %._crit_edge ], [ %2, %1 ]
  %8 = icmp sgt i32 %0, %7
  br i1 %8, label %9, label %13

9:                                                ; preds = %6
  %10 = tail call fastcc noundef ptr @_ZN12_GLOBAL__N_117getLeapCorrectionEv()
  %11 = add nsw i32 %0, -1
  %12 = tail call noundef signext i8 @_ZNK6icu_7710UnicodeSet8containsEi(ptr noundef nonnull align 8 dereferenceable(200) %10, i32 noundef %11)
  %.not10 = icmp eq i8 %12, 0
  br i1 %.not10, label %13, label %20

13:                                               ; preds = %9, %6
  %14 = sext i32 %0 to i64
  %15 = mul nsw i64 %14, 25
  %16 = add nsw i64 %15, 11
  %17 = srem i64 %16, 33
  %18 = icmp slt i64 %17, 8
  %19 = zext i1 %18 to i8
  br label %20

20:                                               ; preds = %9, %3, %13
  %.0 = phi i8 [ %19, %13 ], [ 0, %3 ], [ 1, %9 ]
  ret i8 %.0
}